target datalayout = "e-m:e-p270:32:32-p271:32:32-p272:64:64-i64:64-i128:128-f80:128-n8:16:32:64-S128"
target triple = "x86_64-pc-linux-gnu"

%struct.ggml_opt_result = type <{ i64, %"class.std::vector.0", %"class.std::vector.5", i64, i64, i8, [7 x i8] }>
%"class.std::vector.0" = type { %"struct.std::_Vector_base.1" }
%"struct.std::_Vector_base.1" = type { %"struct.std::_Vector_base<float, std::allocator<float>>::_Vector_impl" }
%"struct.std::_Vector_base<float, std::allocator<float>>::_Vector_impl" = type { %"struct.std::_Vector_base<float, std::allocator<float>>::_Vector_impl_data" }
%"struct.std::_Vector_base<float, std::allocator<float>>::_Vector_impl_data" = type { ptr, ptr, ptr }
%"class.std::vector.5" = type { %"struct.std::_Vector_base.6" }
%"struct.std::_Vector_base.6" = type { %"struct.std::_Vector_base<int, std::allocator<int>>::_Vector_impl" }
%"struct.std::_Vector_base<int, std::allocator<int>>::_Vector_impl" = type { %"struct.std::_Vector_base<int, std::allocator<int>>::_Vector_impl_data" }
%"struct.std::_Vector_base<int, std::allocator<int>>::_Vector_impl_data" = type { ptr, ptr, ptr }
%"class.__gnu_cxx::__normal_iterator.10" = type { ptr }

; Function Attrs: mustprogress nounwind uwtable
define linkonce_odr noundef nonnull align 8 dereferenceable(8) ptr @_ZNK9__gnu_cxx17__normal_iteratorIPfSt6vectorIfSaIfEEE4baseEv(ptr noundef nonnull align 8 dereferenceable(8) %0) #7 comdat align 2 {
  %2 = alloca ptr, align 8
  store ptr %0, ptr %2, align 8, !tbaa !160
  %3 = load ptr, ptr %2, align 8
  %4 = getelementptr inbounds nuw %"class.__gnu_cxx::__normal_iterator.10", ptr %3, i32 0, i32 0
  ret ptr %4
}

; Function Attrs: mustprogress nounwind uwtable
define linkonce_odr void @_ZN9__gnu_cxx17__normal_iteratorIPfSt6vectorIfSaIfEEEC2ERKS1_(ptr noundef nonnull align 8 dereferenceable(8) %0, ptr noundef nonnull align 8 dereferenceable(8) %1) unnamed_addr #7 comdat align 2 {
  %3 = alloca ptr, align 8
  %4 = alloca ptr, align 8
  store ptr %0, ptr %3, align 8, !tbaa !160
  store ptr %1, ptr %4, align 8, !tbaa !345
  %5 = load ptr, ptr %3, align 8
  %6 = getelementptr inbounds nuw %"class.__gnu_cxx::__normal_iterator.10", ptr %5, i32 0, i32 0
  %7 = load ptr, ptr %4, align 8, !tbaa !345
  %8 = load ptr, ptr %7, align 8, !tbaa !158
  store ptr %8, ptr %6, align 8, !tbaa !162
  ret void
}

; Function Attrs: mustprogress nounwind uwtable
define linkonce_odr noundef nonnull align 8 dereferenceable(8) ptr @_ZN9__gnu_cxx17__normal_iteratorIPfSt6vectorIfSaIfEEEppEv(ptr noundef nonnull align 8 dereferenceable(8) %0) #7 comdat align 2 {
  %2 = alloca ptr, align 8
  store ptr %0, ptr %2, align 8, !tbaa !160
  %3 = load ptr, ptr %2, align 8
  %4 = getelementptr inbounds nuw %"class.__gnu_cxx::__normal_iterator.10", ptr %3, i32 0, i32 0
  %5 = load ptr, ptr %4, align 8, !tbaa !162
  %6 = getelementptr inbounds nuw float, ptr %5, i32 1
  store ptr %6, ptr %4, align 8, !tbaa !162
  ret ptr %3
}

; Function Attrs: mustprogress nounwind uwtable
define linkonce_odr noundef nonnull align 4 dereferenceable(4) ptr @_ZNK9__gnu_cxx17__normal_iteratorIPfSt6vectorIfSaIfEEEdeEv(ptr noundef nonnull align 8 dereferenceable(8) %0) #7 comdat align 2 {
  %2 = alloca ptr, align 8
  store ptr %0, ptr %2, align 8, !tbaa !160
  %3 = load ptr, ptr %2, align 8
  %4 = getelementptr inbounds nuw %"class.__gnu_cxx::__normal_iterator.10", ptr %3, i32 0, i32 0
  %5 = load ptr, ptr %4, align 8, !tbaa !162
  ret ptr %5
}

; Function Attrs: inlinehint mustprogress nounwind uwtable
define linkonce_odr noundef zeroext i1 @_ZN9__gnu_cxxneIPfSt6vectorIfSaIfEEEEbRKNS_17__normal_iteratorIT_T0_EESA_(ptr noundef nonnull align 8 dereferenceable(8) %0, ptr noundef nonnull align 8 dereferenceable(8) %1) #4 comdat {
  %3 = alloca ptr, align 8
  %4 = alloca ptr, align 8
  store ptr %0, ptr %3, align 8, !tbaa !160
  store ptr %1, ptr %4, align 8, !tbaa !160
  %5 = load ptr, ptr %3, align 8, !tbaa !160
  %6 = call noundef nonnull align 8 dereferenceable(8) ptr @_ZNK9__gnu_cxx17__normal_iteratorIPfSt6vectorIfSaIfEEE4baseEv(ptr noundef nonnull align 8 dereferenceable(8) %5) #17
  %7 = load ptr, ptr %6, align 8, !tbaa !158
  %8 = load ptr, ptr %4, align 8, !tbaa !160
  %9 = call noundef nonnull align 8 dereferenceable(8) ptr @_ZNK9__gnu_cxx17__normal_iteratorIPfSt6vectorIfSaIfEEE4baseEv(ptr noundef nonnull align 8 dereferenceable(8) %8) #17
  %10 = load ptr, ptr %9, align 8, !tbaa !158
  %11 = icmp ne ptr %7, %10
  ret i1 %11
}

; Function Attrs: mustprogress nounwind uwtable
define linkonce_odr ptr @_ZNSt6vectorIfSaIfEE3endEv(ptr noundef nonnull align 8 dereferenceable(24) %0) #7 comdat align 2 {
  %2 = alloca %"class.__gnu_cxx::__normal_iterator.10", align 8
  %3 = alloca ptr, align 8
  store ptr %0, ptr %3, align 8, !tbaa !148
  %4 = load ptr, ptr %3, align 8
  %5 = getelementptr inbounds nuw %"struct.std::_Vector_base.1", ptr %4, i32 0, i32 0
  %6 = getelementptr inbounds nuw %"struct.std::_Vector_base<float, std::allocator<float>>::_Vector_impl_data", ptr %5, i32 0, i32 1
  call void @_ZN9__gnu_cxx17__normal_iteratorIPfSt6vectorIfSaIfEEEC2ERKS1_(ptr noundef nonnull align 8 dereferenceable(8) %2, ptr noundef nonnull align 8 dereferenceable(8) %6) #17
  %7 = getelementptr inbounds nuw %"class.__gnu_cxx::__normal_iterator.10", ptr %2, i32 0, i32 0
  %8 = load ptr, ptr %7, align 8
  ret ptr %8
}

; Function Attrs: mustprogress nounwind uwtable
define linkonce_odr ptr @_ZNSt6vectorIfSaIfEE5beginEv(ptr noundef nonnull align 8 dereferenceable(24) %0) #7 comdat align 2 {
  %2 = alloca %"class.__gnu_cxx::__normal_iterator.10", align 8
  %3 = alloca ptr, align 8
  store ptr %0, ptr %3, align 8, !tbaa !148
  %4 = load ptr, ptr %3, align 8
  %5 = getelementptr inbounds nuw %"struct.std::_Vector_base.1", ptr %4, i32 0, i32 0
  %6 = getelementptr inbounds nuw %"struct.std::_Vector_base<float, std::allocator<float>>::_Vector_impl_data", ptr %5, i32 0, i32 0
  call void @_ZN9__gnu_cxx17__normal_iteratorIPfSt6vectorIfSaIfEEEC2ERKS1_(ptr noundef nonnull align 8 dereferenceable(8) %2, ptr noundef nonnull align 8 dereferenceable(8) %6) #17
  %7 = getelementptr inbounds nuw %"class.__gnu_cxx::__normal_iterator.10", ptr %2, i32 0, i32 0
  %8 = load ptr, ptr %7, align 8
  ret ptr %8
}

; Function Attrs: mustprogress nounwind uwtable
define linkonce_odr noundef i64 @_ZNKSt6vectorIfSaIfEE4sizeEv(ptr noundef nonnull align 8 dereferenceable(24) %0) #7 comdat align 2 {
  %2 = alloca ptr, align 8
  store ptr %0, ptr %2, align 8, !tbaa !148
  %3 = load ptr, ptr %2, align 8
  %4 = getelementptr inbounds nuw %"struct.std::_Vector_base.1", ptr %3, i32 0, i32 0
  %5 = getelementptr inbounds nuw %"struct.std::_Vector_base<float, std::allocator<float>>::_Vector_impl_data", ptr %4, i32 0, i32 1
  %6 = load ptr, ptr %5, align 8, !tbaa !159
  %7 = getelementptr inbounds nuw %"struct.std::_Vector_base.1", ptr %3, i32 0, i32 0
  %8 = getelementptr inbounds nuw %"struct.std::_Vector_base<float, std::allocator<float>>::_Vector_impl_data", ptr %7, i32 0, i32 0
  %9 = load ptr, ptr %8, align 8, !tbaa !150
  %10 = ptrtoint ptr %6 to i64
  %11 = ptrtoint ptr %9 to i64
  %12 = sub i64 %10, %11
  %13 = sdiv exact i64 %12, 4
  ret i64 %13
}

; Function Attrs: mustprogress nounwind uwtable
define void @ggml_opt_result_loss(ptr noundef %0, ptr noundef %1, ptr noundef %2) #7 {
  %4 = alloca ptr, align 8
  %5 = alloca ptr, align 8
  %6 = alloca ptr, align 8
  %7 = alloca i64, align 8
  %8 = alloca i32, align 4
  %9 = alloca double, align 8
  %10 = alloca double, align 8
  %11 = alloca ptr, align 8
  %12 = alloca %"class.__gnu_cxx::__normal_iterator.10", align 8
  %13 = alloca %"class.__gnu_cxx::__normal_iterator.10", align 8
  %14 = alloca ptr, align 8
  %15 = alloca float, align 4
  %16 = alloca double, align 8
  %17 = alloca double, align 8
  store ptr %0, ptr %4, align 8, !tbaa !132
  store ptr %1, ptr %5, align 8, !tbaa !154
  store ptr %2, ptr %6, align 8, !tbaa !154
  call void @llvm.lifetime.start.p0(i64 8, ptr %7) #17
  %18 = load ptr, ptr %4, align 8, !tbaa !132
  %19 = getelementptr inbounds nuw %struct.ggml_opt_result, ptr %18, i32 0, i32 1
  %20 = call noundef i64 @_ZNKSt6vectorIfSaIfEE4sizeEv(ptr noundef nonnull align 8 dereferenceable(24) %19) #17
  store i64 %20, ptr %7, align 8, !tbaa !3
  %21 = load i64, ptr %7, align 8, !tbaa !3
  %22 = icmp eq i64 %21, 0
  br i1 %22, label %23, label %26

23:                                               ; preds = %3
  %24 = load ptr, ptr %5, align 8, !tbaa !154
  store double 0.000000e+00, ptr %24, align 8, !tbaa !156
  %25 = load ptr, ptr %6, align 8, !tbaa !154
  store double 0x7FF8000000000000, ptr %25, align 8, !tbaa !156
  store i32 1, ptr %8, align 4
  br label %127

26:                                               ; preds = %3
  call void @llvm.lifetime.start.p0(i64 8, ptr %9) #17
  store double 0.000000e+00, ptr %9, align 8, !tbaa !156
  call void @llvm.lifetime.start.p0(i64 8, ptr %10) #17
  store double 0.000000e+00, ptr %10, align 8, !tbaa !156
  call void @llvm.lifetime.start.p0(i64 8, ptr %11) #17
  %27 = load ptr, ptr %4, align 8, !tbaa !132
  %28 = getelementptr inbounds nuw %struct.ggml_opt_result, ptr %27, i32 0, i32 1
  store ptr %28, ptr %11, align 8, !tbaa !148
  call void @llvm.lifetime.start.p0(i64 8, ptr %12) #17
  %29 = load ptr, ptr %11, align 8, !tbaa !148
  %30 = call ptr @_ZNSt6vectorIfSaIfEE5beginEv(ptr noundef nonnull align 8 dereferenceable(24) %29) #17
  %31 = getelementptr inbounds nuw %"class.__gnu_cxx::__normal_iterator.10", ptr %12, i32 0, i32 0
  store ptr %30, ptr %31, align 8
  call void @llvm.lifetime.start.p0(i64 8, ptr %13) #17
  %32 = load ptr, ptr %11, align 8, !tbaa !148
  %33 = call ptr @_ZNSt6vectorIfSaIfEE3endEv(ptr noundef nonnull align 8 dereferenceable(24) %32) #17
  %34 = getelementptr inbounds nuw %"class.__gnu_cxx::__normal_iterator.10", ptr %13, i32 0, i32 0
  store ptr %33, ptr %34, align 8
  br label %35

35:                                               ; preds = %67, %26
  %36 = call noundef zeroext i1 @_ZN9__gnu_cxxneIPfSt6vectorIfSaIfEEEEbRKNS_17__normal_iteratorIT_T0_EESA_(ptr noundef nonnull align 8 dereferenceable(8) %12, ptr noundef nonnull align 8 dereferenceable(8) %13) #17
  br i1 %36, label %38, label %37

37:                                               ; preds = %35
  store i32 2, ptr %8, align 4
  call void @llvm.lifetime.end.p0(i64 8, ptr %13) #17
  call void @llvm.lifetime.end.p0(i64 8, ptr %12) #17
  call void @llvm.lifetime.end.p0(i64 8, ptr %11) #17
  br label %69

38:                                               ; preds = %35
  call void @llvm.lifetime.start.p0(i64 8, ptr %14) #17
  %39 = call noundef nonnull align 4 dereferenceable(4) ptr @_ZNK9__gnu_cxx17__normal_iteratorIPfSt6vectorIfSaIfEEEdeEv(ptr noundef nonnull align 8 dereferenceable(8) %12) #17
  store ptr %39, ptr %14, align 8, !tbaa !158
  call void @llvm.lifetime.start.p0(i64 4, ptr %15) #17
  %40 = load ptr, ptr %4, align 8, !tbaa !132
  %41 = getelementptr inbounds nuw %struct.ggml_opt_result, ptr %40, i32 0, i32 5
  %42 = load i8, ptr %41, align 8, !tbaa !147, !range !111, !noundef !112
  %43 = trunc i8 %42 to i1
  br i1 %43, label %44, label %52

44:                                               ; preds = %38
  %45 = load ptr, ptr %14, align 8, !tbaa !158
  %46 = load float, ptr %45, align 4, !tbaa !116
  %47 = load ptr, ptr %4, align 8, !tbaa !132
  %48 = getelementptr inbounds nuw %struct.ggml_opt_result, ptr %47, i32 0, i32 4
  %49 = load i64, ptr %48, align 8, !tbaa !146
  %50 = sitofp i64 %49 to float
  %51 = fmul float %46, %50
  br label %55

52:                                               ; preds = %38
  %53 = load ptr, ptr %14, align 8, !tbaa !158
  %54 = load float, ptr %53, align 4, !tbaa !116
  br label %55

55:                                               ; preds = %52, %44
  %56 = phi float [ %51, %44 ], [ %54, %52 ]
  store float %56, ptr %15, align 4, !tbaa !116
  %57 = load float, ptr %15, align 4, !tbaa !116
  %58 = fpext float %57 to double
  %59 = load double, ptr %9, align 8, !tbaa !156
  %60 = fadd double %59, %58
  store double %60, ptr %9, align 8, !tbaa !156
  %61 = load float, ptr %15, align 4, !tbaa !116
  %62 = load float, ptr %15, align 4, !tbaa !116
  %63 = fmul float %61, %62
  %64 = fpext float %63 to double
  %65 = load double, ptr %10, align 8, !tbaa !156
  %66 = fadd double %65, %64
  store double %66, ptr %10, align 8, !tbaa !156
  call void @llvm.lifetime.end.p0(i64 4, ptr %15) #17
  call void @llvm.lifetime.end.p0(i64 8, ptr %14) #17
  br label %67

67:                                               ; preds = %55
  %68 = call noundef nonnull align 8 dereferenceable(8) ptr @_ZN9__gnu_cxx17__normal_iteratorIPfSt6vectorIfSaIfEEEppEv(ptr noundef nonnull align 8 dereferenceable(8) %12) #17
  br label %35

69:                                               ; preds = %37
  call void @llvm.lifetime.start.p0(i64 8, ptr %16) #17
  %70 = load double, ptr %9, align 8, !tbaa !156
  %71 = load i64, ptr %7, align 8, !tbaa !3
  %72 = sitofp i64 %71 to double
  %73 = fdiv double %70, %72
  store double %73, ptr %16, align 8, !tbaa !156
  %74 = load ptr, ptr %4, align 8, !tbaa !132
  %75 = getelementptr inbounds nuw %struct.ggml_opt_result, ptr %74, i32 0, i32 5
  %76 = load i8, ptr %75, align 8, !tbaa !147, !range !111, !noundef !112
  %77 = trunc i8 %76 to i1
  br i1 %77, label %78, label %80

78:                                               ; preds = %69
  %79 = load double, ptr %16, align 8, !tbaa !156
  br label %82

80:                                               ; preds = %69
  %81 = load double, ptr %9, align 8, !tbaa !156
  br label %82

82:                                               ; preds = %80, %78
  %83 = phi double [ %79, %78 ], [ %81, %80 ]
  %84 = load ptr, ptr %5, align 8, !tbaa !154
  store double %83, ptr %84, align 8, !tbaa !156
  %85 = load ptr, ptr %6, align 8, !tbaa !154
  %86 = icmp ne ptr %85, null
  br i1 %86, label %88, label %87

87:                                               ; preds = %82
  store i32 1, ptr %8, align 4
  br label %126

88:                                               ; preds = %82
  %89 = load i64, ptr %7, align 8, !tbaa !3
  %90 = icmp slt i64 %89, 2
  br i1 %90, label %91, label %93

91:                                               ; preds = %88
  %92 = load ptr, ptr %6, align 8, !tbaa !154
  store double 0x7FF8000000000000, ptr %92, align 8, !tbaa !156
  store i32 1, ptr %8, align 4
  br label %126

93:                                               ; preds = %88
  call void @llvm.lifetime.start.p0(i64 8, ptr %17) #17
  %94 = load double, ptr %10, align 8, !tbaa !156
  %95 = load i64, ptr %7, align 8, !tbaa !3
  %96 = sitofp i64 %95 to double
  %97 = fdiv double %94, %96
  %98 = load double, ptr %16, align 8, !tbaa !156
  %99 = load double, ptr %16, align 8, !tbaa !156
  %100 = fneg double %98
  %101 = call double @llvm.fmuladd.f64(double %100, double %99, double %97)
  store double %101, ptr %17, align 8, !tbaa !156
  %102 = load ptr, ptr %4, align 8, !tbaa !132
  %103 = getelementptr inbounds nuw %struct.ggml_opt_result, ptr %102, i32 0, i32 5
  %104 = load i8, ptr %103, align 8, !tbaa !147, !range !111, !noundef !112
  %105 = trunc i8 %104 to i1
  br i1 %105, label %106, label %113

106:                                              ; preds = %93
  %107 = load double, ptr %17, align 8, !tbaa !156
  %108 = load i64, ptr %7, align 8, !tbaa !3
  %109 = sub nsw i64 %108, 1
  %110 = sitofp i64 %109 to double
  %111 = fdiv double %107, %110
  %112 = call double @sqrt(double noundef %111) #17, !tbaa !100
  br label %123

113:                                              ; preds = %93
  %114 = load double, ptr %17, align 8, !tbaa !156
  %115 = load i64, ptr %7, align 8, !tbaa !3
  %116 = sitofp i64 %115 to double
  %117 = fmul double %114, %116
  %118 = load i64, ptr %7, align 8, !tbaa !3
  %119 = sub nsw i64 %118, 1
  %120 = sitofp i64 %119 to double
  %121 = fdiv double %117, %120
  %122 = call double @sqrt(double noundef %121) #17, !tbaa !100
  br label %123

123:                                              ; preds = %113, %106
  %124 = phi double [ %112, %106 ], [ %122, %113 ]
  %125 = load ptr, ptr %6, align 8, !tbaa !154
  store double %124, ptr %125, align 8, !tbaa !156
  call void @llvm.lifetime.end.p0(i64 8, ptr %17) #17
  store i32 0, ptr %8, align 4
  br label %126

126:                                              ; preds = %123, %91, %87
  call void @llvm.lifetime.end.p0(i64 8, ptr %16) #17
  call void @llvm.lifetime.end.p0(i64 8, ptr %10) #17
  call void @llvm.lifetime.end.p0(i64 8, ptr %9) #17
  br label %127

127:                                              ; preds = %126, %23
  call void @llvm.lifetime.end.p0(i64 8, ptr %7) #17
  %128 = load i32, ptr %8, align 4
  switch i32 %128, label %130 [
    i32 0, label %129
    i32 1, label %129
  ]

129:                                              ; preds = %127, %127
  ret void

130:                                              ; preds = %127
  unreachable
}