; Function Attrs: mustprogress nofree nounwind memory(readwrite, inaccessiblemem: write) uwtable
define void @ggml_opt_result_loss(ptr noundef readonly captures(none) %0, ptr noundef writeonly captures(none) %1, ptr noundef writeonly %2) local_unnamed_addr #11 {
  %4 = getelementptr inbounds nuw i8, ptr %0, i64 8
  %5 = getelementptr inbounds nuw i8, ptr %0, i64 16
  %6 = load ptr, ptr %5, align 8, !tbaa !122
  %7 = load ptr, ptr %4, align 8, !tbaa !119
  %8 = ptrtoint ptr %6 to i64
  %9 = ptrtoint ptr %7 to i64
  %10 = sub i64 %8, %9
  %11 = ashr exact i64 %10, 2
  %12 = icmp eq ptr %6, %7
  br i1 %12, label %28, label %.preheader

.preheader:                                       ; preds = %3
  %13 = getelementptr inbounds nuw i8, ptr %0, i64 72
  %14 = load i8, ptr %13, align 8, !tbaa !116, !range !125, !noundef !126
  %15 = trunc nuw i8 %14 to i1
  br i1 %15, label %.preheader.split.us, label %.preheader.split

.preheader.split.us:                              ; preds = %.preheader
  %16 = getelementptr inbounds nuw i8, ptr %0, i64 64
  %17 = load i64, ptr %16, align 8, !tbaa !105
  %18 = sitofp i64 %17 to float
  br label %19

19:                                               ; preds = %19, %.preheader.split.us
  %.044.us = phi double [ 0.000000e+00, %.preheader.split.us ], [ %23, %19 ]
  %.03543.us = phi double [ 0.000000e+00, %.preheader.split.us ], [ %26, %19 ]
  %.sroa.038.042.us = phi ptr [ %7, %.preheader.split.us ], [ %27, %19 ]
  %20 = load float, ptr %.sroa.038.042.us, align 4, !tbaa !127
  %21 = fmul float %20, %18
  %22 = fpext float %21 to double
  %23 = fadd double %.044.us, %22
  %24 = fmul float %21, %21
  %25 = fpext float %24 to double
  %26 = fadd double %.03543.us, %25
  %27 = getelementptr inbounds nuw i8, ptr %.sroa.038.042.us, i64 4
  %.not41.us = icmp eq ptr %27, %6
  br i1 %.not41.us, label %.split.us, label %19

28:                                               ; preds = %3
  store double 0.000000e+00, ptr %1, align 8, !tbaa !128
  br label %.sink.split

.split.us:                                        ; preds = %.preheader.split, %19
  %.us-phi = phi double [ %26, %19 ], [ %37, %.preheader.split ]
  %.us-phi45 = phi double [ %23, %19 ], [ %34, %.preheader.split ]
  %29 = sitofp i64 %11 to double
  %30 = fdiv double %.us-phi45, %29
  %31 = select i1 %15, double %30, double %.us-phi45
  store double %31, ptr %1, align 8, !tbaa !128
  %.not = icmp eq ptr %2, null
  br i1 %.not, label %50, label %39

.preheader.split:                                 ; preds = %.preheader, %.preheader.split
  %.044 = phi double [ %34, %.preheader.split ], [ 0.000000e+00, %.preheader ]
  %.03543 = phi double [ %37, %.preheader.split ], [ 0.000000e+00, %.preheader ]
  %.sroa.038.042 = phi ptr [ %38, %.preheader.split ], [ %7, %.preheader ]
  %32 = load float, ptr %.sroa.038.042, align 4, !tbaa !127
  %33 = fpext float %32 to double
  %34 = fadd double %.044, %33
  %35 = fmul float %32, %32
  %36 = fpext float %35 to double
  %37 = fadd double %.03543, %36
  %38 = getelementptr inbounds nuw i8, ptr %.sroa.038.042, i64 4
  %.not41 = icmp eq ptr %38, %6
  br i1 %.not41, label %.split.us, label %.preheader.split

39:                                               ; preds = %.split.us
  %40 = icmp slt i64 %11, 2
  br i1 %40, label %.sink.split, label %41

41:                                               ; preds = %39
  %42 = fdiv double %.us-phi, %29
  %43 = fneg double %30
  %44 = tail call double @llvm.fmuladd.f64(double %43, double %30, double %42)
  %45 = fmul double %44, %29
  %.sink54 = select i1 %15, double %44, double %45
  %46 = add nsw i64 %11, -1
  %47 = uitofp nneg i64 %46 to double
  %48 = fdiv double %.sink54, %47
  %49 = tail call double @sqrt(double noundef %48) #30, !tbaa !130
  br label %.sink.split

.sink.split:                                      ; preds = %39, %28, %41
  %.sink = phi double [ %49, %41 ], [ 0x7FF8000000000000, %28 ], [ 0x7FF8000000000000, %39 ]
  store double %.sink, ptr %2, align 8, !tbaa !128
  br label %50

50:                                               ; preds = %.sink.split, %.split.us
  ret void
}